; Function Attrs: mustprogress nofree norecurse nosync nounwind willreturn memory(read, inaccessiblemem: none) uwtable
define dso_local noundef zeroext i1 @_Z8notExistRK9btVector3RK20btAlignedObjectArrayIS_E(ptr noundef nonnull readonly align 4 captures(none) dereferenceable(16) %0, ptr noundef nonnull readonly align 8 captures(none) dereferenceable(25) %1) local_unnamed_addr #1 {
  %3 = getelementptr inbounds nuw i8, ptr %1, i64 4
  %4 = load i32, ptr %3, align 4, !tbaa !4
  %.not14 = icmp slt i32 %4, 1
  br i1 %.not14, label %.critedge, label %.lr.ph

.lr.ph:                                           ; preds = %2
  %5 = getelementptr inbounds nuw i8, ptr %1, i64 16
  %6 = load ptr, ptr %5, align 8, !tbaa !13
  %7 = load float, ptr %0, align 4, !tbaa !14
  %8 = getelementptr inbounds nuw i8, ptr %0, i64 4
  %9 = load float, ptr %8, align 4, !tbaa !14
  %10 = getelementptr inbounds nuw i8, ptr %0, i64 8
  %11 = load float, ptr %10, align 4, !tbaa !14
  %wide.trip.count = zext nneg i32 %4 to i64
  br label %12

12:                                               ; preds = %12, %.lr.ph
  %indvars.iv = phi i64 [ 0, %.lr.ph ], [ %indvars.iv.next, %12 ]
  %13 = getelementptr inbounds nuw %class.btVector3, ptr %6, i64 %indvars.iv
  %14 = load float, ptr %13, align 4, !tbaa !14
  %15 = getelementptr inbounds nuw i8, ptr %13, i64 4
  %16 = load float, ptr %15, align 4, !tbaa !14
  %17 = fmul float %9, %16
  %18 = tail call float @llvm.fmuladd.f32(float %7, float %14, float %17)
  %19 = getelementptr inbounds nuw i8, ptr %13, i64 8
  %20 = load float, ptr %19, align 4, !tbaa !14
  %21 = tail call noundef float @llvm.fmuladd.f32(float %11, float %20, float %18)
  %22 = fcmp ule float %21, 0x3FEFF7CEE0000000
  %indvars.iv.next = add nuw nsw i64 %indvars.iv, 1
  %exitcond.not = icmp ne i64 %indvars.iv.next, %wide.trip.count
  %or.cond.not = select i1 %22, i1 %exitcond.not, i1 false
  br i1 %or.cond.not, label %12, label %.critedge, !llvm.loop !19

.critedge:                                        ; preds = %12, %2
  %.not.lcssa = phi i1 [ true, %2 ], [ %22, %12 ]
  ret i1 %.not.lcssa
}